; Function Attrs: mustprogress nofree norecurse nosync nounwind willreturn memory(read, inaccessiblemem: none) uwtable
define hidden noundef zeroext i1 @_ZNK11state_graph7is_deadEj(ptr noundef nonnull readonly align 8 captures(none) dereferenceable(152) %0, i32 noundef %1) local_unnamed_addr #8 align 2 {
  %3 = getelementptr inbounds nuw i8, ptr %0, i64 8
  %4 = getelementptr inbounds nuw i8, ptr %0, i64 40
  %5 = load ptr, ptr %4, align 8, !tbaa !3
  %6 = icmp eq ptr %5, null
  br i1 %6, label %_ZNK16basic_union_find4findEj.exit, label %_ZNK16basic_union_find12get_num_varsEv.exit.i

_ZNK16basic_union_find12get_num_varsEv.exit.i:    ; preds = %2
  %7 = getelementptr inbounds i8, ptr %5, i64 -4
  %8 = load i32, ptr %7, align 4, !tbaa !9
  %.not.i = icmp ult i32 %1, %8
  br i1 %.not.i, label %.preheader.i, label %_ZNK16basic_union_find4findEj.exit

.preheader.i:                                     ; preds = %_ZNK16basic_union_find12get_num_varsEv.exit.i, %.preheader.i
  %.010.i = phi i32 [ %11, %.preheader.i ], [ %1, %_ZNK16basic_union_find12get_num_varsEv.exit.i ]
  %9 = zext i32 %.010.i to i64
  %10 = getelementptr inbounds nuw i32, ptr %5, i64 %9
  %11 = load i32, ptr %10, align 4, !tbaa !9
  %.not17.i = icmp eq i32 %11, %.010.i
  br i1 %.not17.i, label %_ZNK16basic_union_find4findEj.exit, label %.preheader.i

_ZNK16basic_union_find4findEj.exit:               ; preds = %.preheader.i, %2, %_ZNK16basic_union_find12get_num_varsEv.exit.i
  %.09.i = phi i32 [ %1, %_ZNK16basic_union_find12get_num_varsEv.exit.i ], [ %1, %2 ], [ %.010.i, %.preheader.i ]
  %12 = lshr i32 %.09.i, 5
  %13 = load ptr, ptr %3, align 8, !tbaa !3
  %14 = icmp eq ptr %13, null
  br i1 %14, label %_ZNK8uint_set8containsEj.exit, label %_ZNK6vectorIjLb0EjE4sizeEv.exit.i

_ZNK6vectorIjLb0EjE4sizeEv.exit.i:                ; preds = %_ZNK16basic_union_find4findEj.exit
  %15 = getelementptr inbounds i8, ptr %13, i64 -4
  %16 = load i32, ptr %15, align 4, !tbaa !9
  %17 = icmp ult i32 %12, %16
  br i1 %17, label %18, label %_ZNK8uint_set8containsEj.exit

18:                                               ; preds = %_ZNK6vectorIjLb0EjE4sizeEv.exit.i
  %19 = zext nneg i32 %12 to i64
  %20 = getelementptr inbounds nuw i32, ptr %13, i64 %19
  %21 = load i32, ptr %20, align 4, !tbaa !9
  %22 = and i32 %.09.i, 31
  %23 = shl nuw i32 1, %22
  %24 = and i32 %21, %23
  %25 = icmp ne i32 %24, 0
  br label %_ZNK8uint_set8containsEj.exit

_ZNK8uint_set8containsEj.exit:                    ; preds = %_ZNK16basic_union_find4findEj.exit, %_ZNK6vectorIjLb0EjE4sizeEv.exit.i, %18
  %26 = phi i1 [ false, %_ZNK6vectorIjLb0EjE4sizeEv.exit.i ], [ %25, %18 ], [ false, %_ZNK16basic_union_find4findEj.exit ]
  ret i1 %26
}